; Function Attrs: null_pointer_is_valid sspstrong uwtable
define internal noundef zeroext i16 @de_nas_cont_for_ps_ho(ptr noundef %0, ptr noundef %1, ptr noundef %2, i32 noundef %3, i32 noundef %4, ptr readnone captures(none) %5, i32 %6) #1 {
  %8 = load i32, ptr @hf_gsm_a_old_xid, align 4
  %9 = tail call ptr @proto_tree_add_item(ptr noundef %1, i32 noundef %8, ptr noundef %0, i32 noundef %3, i32 noundef 1, i32 noundef 0)
  %10 = load i32, ptr @hf_gsm_a_type_of_ciph_alg, align 4
  %11 = tail call ptr @proto_tree_add_item(ptr noundef %1, i32 noundef %10, ptr noundef %0, i32 noundef %3, i32 noundef 1, i32 noundef 0)
  %12 = add i32 %3, 1
  %13 = load i32, ptr @hf_gsm_a_iov_ui, align 4
  %14 = tail call ptr @proto_tree_add_item(ptr noundef %1, i32 noundef %13, ptr noundef %0, i32 noundef %12, i32 noundef 4, i32 noundef 0)
  %15 = add i32 %3, 5
  %16 = icmp ugt i32 %4, 5
  br i1 %16, label %17, label %21

17:                                               ; preds = %7
  %18 = add i32 %4, -5
  %19 = tail call ptr @proto_tree_add_expert(ptr noundef %1, ptr noundef %2, ptr noundef nonnull @ei_gsm_a_extraneous_data, ptr noundef %0, i32 noundef %15, i32 noundef %18)
  %20 = add i32 %4, %3
  br label %21

21:                                               ; preds = %17, %7
  %.0 = phi i32 [ %20, %17 ], [ %15, %7 ]
  %22 = sub i32 %.0, %3
  %23 = trunc i32 %22 to i16
  ret i16 %23
}